target datalayout = "e-m:e-p270:32:32-p271:32:32-p272:64:64-i64:64-i128:128-f80:128-n8:16:32:64-S128"
target triple = "x86_64-pc-linux-gnu"

%struct.slurmdb_cluster_rec = type { ptr, i16, i64, %struct.sockaddr_storage, ptr, i32, i16, ptr, i16, %struct.slurmdb_cluster_fed_t, i32, %union.pthread_mutex_t, ptr, ptr, ptr, i16, ptr, ptr }
%struct.sockaddr_storage = type { i16, [118 x i8], i64 }
%struct.slurmdb_cluster_fed_t = type { ptr, i32, ptr, ptr, ptr, i32, i8, i8 }
%union.pthread_mutex_t = type { %struct.__pthread_mutex_s }
%struct.__pthread_mutex_s = type { i32, i32, i32, i32, i32, i16, i16, %struct.__pthread_internal_list }
%struct.__pthread_internal_list = type { ptr, ptr }
%struct.job_descriptor = type { ptr, ptr, ptr, ptr, i16, i32, i32, ptr, ptr, ptr, ptr, i64, i64, ptr, ptr, ptr, ptr, i16, ptr, ptr, i16, ptr, i16, i32, i32, i32, ptr, ptr, i64, i32, ptr, i64, ptr, %struct.slurm_hash_t, i32, ptr, ptr, ptr, i64, i64, i32, i32, ptr, i16, i32, ptr, ptr, i16, ptr, ptr, i16, ptr, ptr, ptr, i16, ptr, ptr, ptr, i32, i32, i16, i8, ptr, i16, i8, ptr, i16, ptr, i32, i32, ptr, i16, ptr, i16, ptr, i16, ptr, i16, ptr, ptr, %struct.slurm_hash_t, i16, i32, ptr, i32, ptr, i32, i32, i32, ptr, ptr, ptr, ptr, ptr, ptr, i32, i16, i16, i16, i16, ptr, i16, i32, i32, i32, i32, i16, i16, i16, i16, i16, i16, i16, i16, i16, i16, i16, i64, i32, ptr, i32, i16, ptr, ptr, ptr, ptr, ptr, i32, ptr, i16, ptr, ptr, i16 }
%struct.slurm_hash_t = type { i8, [32 x i8] }
%struct.local_cluster_rec_t = type { ptr, i32, i64 }

@working_cluster_rec = dso_local global ptr null, align 8
@.str.150 = private unnamed_addr constant [38 x i8] c"Problem with submit to cluster %s: %m\00", align 1
@.str.151 = private unnamed_addr constant [43 x i8] c"Can't run on any of the specified clusters\00", align 1

; Function Attrs: nounwind uwtable
define dso_local i32 @slurmdb_get_first_avail_cluster(ptr noundef %0, ptr noundef %1, ptr noundef %2) #0 {
  %4 = alloca i32, align 4
  %5 = alloca ptr, align 8
  %6 = alloca ptr, align 8
  %7 = alloca ptr, align 8
  %8 = alloca ptr, align 8
  %9 = alloca i32, align 4
  %10 = alloca [64 x i8], align 16
  %11 = alloca ptr, align 8
  %12 = alloca ptr, align 8
  %13 = alloca ptr, align 8
  %14 = alloca ptr, align 8
  %15 = alloca i32, align 4
  store ptr %0, ptr %5, align 8
  store ptr %1, ptr %6, align 8
  store ptr %2, ptr %7, align 8
  call void @llvm.lifetime.start.p0(i64 8, ptr %8) #10
  store ptr null, ptr %8, align 8
  call void @llvm.lifetime.start.p0(i64 4, ptr %9) #10
  store i32 0, ptr %9, align 4
  call void @llvm.lifetime.start.p0(i64 64, ptr %10) #10
  call void @llvm.lifetime.start.p0(i64 8, ptr %11) #10
  call void @llvm.lifetime.start.p0(i64 8, ptr %12) #10
  store ptr null, ptr %12, align 8
  call void @llvm.lifetime.start.p0(i64 8, ptr %13) #10
  store ptr null, ptr %13, align 8
  call void @llvm.lifetime.start.p0(i64 8, ptr %14) #10
  store ptr null, ptr %14, align 8
  %16 = load ptr, ptr %7, align 8
  store ptr null, ptr %16, align 8
  %17 = load ptr, ptr %6, align 8
  %18 = call i32 @slurm_get_cluster_info(ptr noundef %12, ptr noundef %17, i16 noundef zeroext 0)
  %19 = icmp ne i32 %18, 0
  br i1 %19, label %20, label %21

20:                                               ; preds = %3
  store i32 -1, ptr %4, align 4
  store i32 1, ptr %15, align 4
  br label %180

21:                                               ; preds = %3
  %22 = load ptr, ptr %12, align 8
  %23 = icmp ne ptr %22, null
  br i1 %23, label %24, label %28

24:                                               ; preds = %21
  %25 = load ptr, ptr %12, align 8
  %26 = call i32 @list_count(ptr noundef %25)
  %27 = icmp ne i32 %26, 0
  br i1 %27, label %29, label %28

28:                                               ; preds = %24, %21
  store i32 -1, ptr %9, align 4
  br label %162

29:                                               ; preds = %24
  %30 = load ptr, ptr %12, align 8
  %31 = call i32 @list_count(ptr noundef %30)
  %32 = icmp eq i32 %31, 1
  br i1 %32, label %33, label %37

33:                                               ; preds = %29
  %34 = load ptr, ptr %12, align 8
  %35 = call ptr @list_pop(ptr noundef %34)
  %36 = load ptr, ptr %7, align 8
  store ptr %35, ptr %36, align 8
  br label %162

37:                                               ; preds = %29
  br label %38

38:                                               ; preds = %37
  %39 = load ptr, ptr %5, align 8
  %40 = getelementptr inbounds nuw %struct.job_descriptor, ptr %39, i32 0, i32 3
  %41 = load ptr, ptr %40, align 8
  %42 = icmp eq ptr %41, null
  br i1 %42, label %43, label %51

43:                                               ; preds = %38
  %44 = getelementptr inbounds [64 x i8], ptr %10, i64 0, i64 0
  %45 = call i32 @gethostname_short(ptr noundef %44, i64 noundef 64)
  %46 = icmp eq i32 %45, 0
  br i1 %46, label %47, label %51

47:                                               ; preds = %43
  %48 = getelementptr inbounds [64 x i8], ptr %10, i64 0, i64 0
  %49 = load ptr, ptr %5, align 8
  %50 = getelementptr inbounds nuw %struct.job_descriptor, ptr %49, i32 0, i32 3
  store ptr %48, ptr %50, align 8
  br label %51

51:                                               ; preds = %47, %43, %38
  %52 = load ptr, ptr @working_cluster_rec, align 8
  %53 = icmp ne ptr %52, null
  br i1 %53, label %54, label %57

54:                                               ; preds = %51
  %55 = load ptr, ptr @working_cluster_rec, align 8
  %56 = load ptr, ptr %7, align 8
  store ptr %55, ptr %56, align 8
  br label %57

57:                                               ; preds = %54, %51
  %58 = call ptr @list_create(ptr noundef null)
  store ptr %58, ptr %14, align 8
  %59 = call ptr @list_create(ptr noundef @xfree_ptr)
  store ptr %59, ptr %13, align 8
  %60 = load ptr, ptr %12, align 8
  %61 = call ptr @list_iterator_create(ptr noundef %60)
  store ptr %61, ptr %11, align 8
  br label %62

62:                                               ; preds = %105, %80, %57
  %63 = load ptr, ptr %11, align 8
  %64 = call ptr @list_next(ptr noundef %63)
  store ptr %64, ptr @working_cluster_rec, align 8
  %65 = icmp ne ptr %64, null
  br i1 %65, label %66, label %106

66:                                               ; preds = %62
  %67 = load ptr, ptr @working_cluster_rec, align 8
  %68 = getelementptr inbounds nuw %struct.slurmdb_cluster_rec, ptr %67, i32 0, i32 9
  %69 = getelementptr inbounds nuw %struct.slurmdb_cluster_fed_t, ptr %68, i32 0, i32 1
  %70 = load i32, ptr %69, align 8
  %71 = icmp ne i32 %70, 0
  br i1 %71, label %72, label %81

72:                                               ; preds = %66
  %73 = load ptr, ptr %14, align 8
  %74 = load ptr, ptr @working_cluster_rec, align 8
  %75 = getelementptr inbounds nuw %struct.slurmdb_cluster_rec, ptr %74, i32 0, i32 9
  %76 = getelementptr inbounds nuw %struct.slurmdb_cluster_fed_t, ptr %75, i32 0, i32 2
  %77 = load ptr, ptr %76, align 8
  %78 = call ptr @list_find_first(ptr noundef %73, ptr noundef @slurm_find_char_in_list, ptr noundef %77)
  %79 = icmp ne ptr %78, null
  br i1 %79, label %80, label %81

80:                                               ; preds = %72
  br label %62, !llvm.loop !39

81:                                               ; preds = %72, %66
  %82 = load ptr, ptr %5, align 8
  %83 = call ptr @_job_will_run(ptr noundef %82)
  store ptr %83, ptr %8, align 8
  %84 = icmp ne ptr %83, null
  br i1 %84, label %85, label %100

85:                                               ; preds = %81
  %86 = load ptr, ptr %13, align 8
  %87 = load ptr, ptr %8, align 8
  call void @list_append(ptr noundef %86, ptr noundef %87)
  %88 = load ptr, ptr @working_cluster_rec, align 8
  %89 = getelementptr inbounds nuw %struct.slurmdb_cluster_rec, ptr %88, i32 0, i32 9
  %90 = getelementptr inbounds nuw %struct.slurmdb_cluster_fed_t, ptr %89, i32 0, i32 1
  %91 = load i32, ptr %90, align 8
  %92 = icmp ne i32 %91, 0
  br i1 %92, label %93, label %99

93:                                               ; preds = %85
  %94 = load ptr, ptr %14, align 8
  %95 = load ptr, ptr @working_cluster_rec, align 8
  %96 = getelementptr inbounds nuw %struct.slurmdb_cluster_rec, ptr %95, i32 0, i32 9
  %97 = getelementptr inbounds nuw %struct.slurmdb_cluster_fed_t, ptr %96, i32 0, i32 2
  %98 = load ptr, ptr %97, align 8
  call void @list_append(ptr noundef %94, ptr noundef %98)
  br label %99

99:                                               ; preds = %93, %85
  br label %105

100:                                              ; preds = %81
  %101 = load ptr, ptr @working_cluster_rec, align 8
  %102 = getelementptr inbounds nuw %struct.slurmdb_cluster_rec, ptr %101, i32 0, i32 12
  %103 = load ptr, ptr %102, align 8
  %104 = call i32 (ptr, ...) @error(ptr noundef @.str.150, ptr noundef %103)
  br label %105

105:                                              ; preds = %100, %99
  br label %62, !llvm.loop !39

106:                                              ; preds = %62
  %107 = load ptr, ptr %11, align 8
  call void @list_iterator_destroy(ptr noundef %107)
  br label %108

108:                                              ; preds = %106
  %109 = load ptr, ptr %14, align 8
  %110 = icmp ne ptr %109, null
  br i1 %110, label %111, label %113

111:                                              ; preds = %108
  %112 = load ptr, ptr %14, align 8
  call void @list_destroy(ptr noundef %112)
  br label %113

113:                                              ; preds = %111, %108
  store ptr null, ptr %14, align 8
  br label %114

114:                                              ; preds = %113
  br label %115

115:                                              ; preds = %114
  %116 = load ptr, ptr %7, align 8
  %117 = load ptr, ptr %116, align 8
  %118 = icmp ne ptr %117, null
  br i1 %118, label %119, label %123

119:                                              ; preds = %115
  %120 = load ptr, ptr %7, align 8
  %121 = load ptr, ptr %120, align 8
  store ptr %121, ptr @working_cluster_rec, align 8
  %122 = load ptr, ptr %7, align 8
  store ptr null, ptr %122, align 8
  br label %123

123:                                              ; preds = %119, %115
  %124 = load ptr, ptr %5, align 8
  %125 = getelementptr inbounds nuw %struct.job_descriptor, ptr %124, i32 0, i32 3
  %126 = load ptr, ptr %125, align 8
  %127 = getelementptr inbounds [64 x i8], ptr %10, i64 0, i64 0
  %128 = icmp eq ptr %126, %127
  br i1 %128, label %129, label %132

129:                                              ; preds = %123
  %130 = load ptr, ptr %5, align 8
  %131 = getelementptr inbounds nuw %struct.job_descriptor, ptr %130, i32 0, i32 3
  store ptr null, ptr %131, align 8
  br label %132

132:                                              ; preds = %129, %123
  %133 = load ptr, ptr %13, align 8
  %134 = call i32 @list_count(ptr noundef %133)
  %135 = icmp ne i32 %134, 0
  br i1 %135, label %138, label %136

136:                                              ; preds = %132
  %137 = call i32 (ptr, ...) @error(ptr noundef @.str.151)
  store i32 -1, ptr %9, align 4
  br label %162

138:                                              ; preds = %132
  %139 = load ptr, ptr %13, align 8
  call void @list_sort(ptr noundef %139, ptr noundef @_sort_local_cluster)
  %140 = load ptr, ptr %13, align 8
  %141 = call ptr @list_peek(ptr noundef %140)
  store ptr %141, ptr %8, align 8
  %142 = load ptr, ptr %12, align 8
  %143 = call ptr @list_iterator_create(ptr noundef %142)
  store ptr %143, ptr %11, align 8
  br label %144

144:                                              ; preds = %159, %138
  %145 = load ptr, ptr %11, align 8
  %146 = call ptr @list_next(ptr noundef %145)
  %147 = load ptr, ptr %7, align 8
  store ptr %146, ptr %147, align 8
  %148 = icmp ne ptr %146, null
  br i1 %148, label %149, label %160

149:                                              ; preds = %144
  %150 = load ptr, ptr %7, align 8
  %151 = load ptr, ptr %150, align 8
  %152 = load ptr, ptr %8, align 8
  %153 = getelementptr inbounds nuw %struct.local_cluster_rec_t, ptr %152, i32 0, i32 0
  %154 = load ptr, ptr %153, align 8
  %155 = icmp eq ptr %151, %154
  br i1 %155, label %156, label %159

156:                                              ; preds = %149
  %157 = load ptr, ptr %11, align 8
  %158 = call ptr @list_remove(ptr noundef %157)
  br label %160

159:                                              ; preds = %149
  br label %144, !llvm.loop !40

160:                                              ; preds = %156, %144
  %161 = load ptr, ptr %11, align 8
  call void @list_iterator_destroy(ptr noundef %161)
  br label %162

162:                                              ; preds = %160, %136, %33, %28
  br label %163

163:                                              ; preds = %162
  %164 = load ptr, ptr %13, align 8
  %165 = icmp ne ptr %164, null
  br i1 %165, label %166, label %168

166:                                              ; preds = %163
  %167 = load ptr, ptr %13, align 8
  call void @list_destroy(ptr noundef %167)
  br label %168

168:                                              ; preds = %166, %163
  store ptr null, ptr %13, align 8
  br label %169

169:                                              ; preds = %168
  br label %170

170:                                              ; preds = %169
  br label %171

171:                                              ; preds = %170
  %172 = load ptr, ptr %12, align 8
  %173 = icmp ne ptr %172, null
  br i1 %173, label %174, label %176

174:                                              ; preds = %171
  %175 = load ptr, ptr %12, align 8
  call void @list_destroy(ptr noundef %175)
  br label %176

176:                                              ; preds = %174, %171
  store ptr null, ptr %12, align 8
  br label %177

177:                                              ; preds = %176
  br label %178

178:                                              ; preds = %177
  %179 = load i32, ptr %9, align 4
  store i32 %179, ptr %4, align 4
  store i32 1, ptr %15, align 4
  br label %180

180:                                              ; preds = %178, %20
  call void @llvm.lifetime.end.p0(i64 8, ptr %14) #10
  call void @llvm.lifetime.end.p0(i64 8, ptr %13) #10
  call void @llvm.lifetime.end.p0(i64 8, ptr %12) #10
  call void @llvm.lifetime.end.p0(i64 8, ptr %11) #10
  call void @llvm.lifetime.end.p0(i64 64, ptr %10) #10
  call void @llvm.lifetime.end.p0(i64 4, ptr %9) #10
  call void @llvm.lifetime.end.p0(i64 8, ptr %8) #10
  %181 = load i32, ptr %4, align 4
  ret i32 %181
}