; Function Attrs: nounwind uwtable
define dso_local range(i32 -1, 1) i32 @slurmdb_get_first_avail_cluster(ptr noundef %0, ptr noundef %1, ptr noundef captures(none) initializes((0, 8)) %2) local_unnamed_addr #0 {
  %4 = alloca [64 x i8], align 16
  %5 = alloca ptr, align 8
  call void @llvm.lifetime.start.p0(i64 64, ptr nonnull %4) #19
  call void @llvm.lifetime.start.p0(i64 8, ptr nonnull %5) #19
  store ptr null, ptr %5, align 8
  store ptr null, ptr %2, align 8
  %6 = call i32 @slurm_get_cluster_info(ptr noundef nonnull %5, ptr noundef %1, i16 noundef zeroext 0) #19
  %.not = icmp eq i32 %6, 0
  br i1 %.not, label %7, label %.thread.thread

7:                                                ; preds = %3
  %8 = load ptr, ptr %5, align 8
  %.not42 = icmp eq ptr %8, null
  br i1 %.not42, label %.thread.thread, label %9

9:                                                ; preds = %7
  %10 = call i32 @list_count(ptr noundef nonnull %8) #19
  %.not43 = icmp eq i32 %10, 0
  br i1 %.not43, label %.thread, label %11

11:                                               ; preds = %9
  %12 = load ptr, ptr %5, align 8
  %13 = call i32 @list_count(ptr noundef %12) #19
  %14 = icmp eq i32 %13, 1
  br i1 %14, label %15, label %18

15:                                               ; preds = %11
  %16 = load ptr, ptr %5, align 8
  %17 = call ptr @list_pop(ptr noundef %16) #19
  store ptr %17, ptr %2, align 8
  br label %.thread

18:                                               ; preds = %11
  %19 = getelementptr inbounds nuw i8, ptr %0, i64 24
  %20 = load ptr, ptr %19, align 8
  %21 = icmp eq ptr %20, null
  br i1 %21, label %22, label %26

22:                                               ; preds = %18
  %23 = call i32 @gethostname_short(ptr noundef nonnull %4, i64 noundef 64) #19
  %24 = icmp eq i32 %23, 0
  br i1 %24, label %25, label %26

25:                                               ; preds = %22
  store ptr %4, ptr %19, align 8
  br label %26

26:                                               ; preds = %25, %22, %18
  %27 = load ptr, ptr @working_cluster_rec, align 8
  %.not44 = icmp eq ptr %27, null
  br i1 %.not44, label %29, label %28

28:                                               ; preds = %26
  store ptr %27, ptr %2, align 8
  br label %29

29:                                               ; preds = %28, %26
  %30 = call ptr @list_create(ptr noundef null) #19
  %31 = call ptr @list_create(ptr noundef nonnull @xfree_ptr) #19
  %32 = load ptr, ptr %5, align 8
  %33 = call ptr @list_iterator_create(ptr noundef %32) #19
  %34 = call ptr @list_next(ptr noundef %33) #19
  store ptr %34, ptr @working_cluster_rec, align 8
  %.not4563 = icmp eq ptr %34, null
  br i1 %.not4563, label %._crit_edge, label %.lr.ph

.lr.ph:                                           ; preds = %29, %.backedge
  %35 = phi ptr [ %56, %.backedge ], [ %34, %29 ]
  %36 = getelementptr inbounds nuw i8, ptr %35, i64 192
  %37 = load i32, ptr %36, align 8
  %.not50 = icmp eq i32 %37, 0
  br i1 %.not50, label %42, label %38

38:                                               ; preds = %.lr.ph
  %39 = getelementptr inbounds nuw i8, ptr %35, i64 200
  %40 = load ptr, ptr %39, align 8
  %41 = call ptr @list_find_first(ptr noundef %30, ptr noundef nonnull @slurm_find_char_in_list, ptr noundef %40) #19
  %.not51 = icmp eq ptr %41, null
  br i1 %.not51, label %42, label %.backedge

42:                                               ; preds = %38, %.lr.ph
  %43 = call fastcc ptr @_job_will_run(ptr noundef %0)
  %.not52 = icmp eq ptr %43, null
  br i1 %.not52, label %51, label %44

44:                                               ; preds = %42
  call void @list_append(ptr noundef %31, ptr noundef nonnull %43) #19
  %45 = load ptr, ptr @working_cluster_rec, align 8
  %46 = getelementptr inbounds nuw i8, ptr %45, i64 192
  %47 = load i32, ptr %46, align 8
  %.not53 = icmp eq i32 %47, 0
  br i1 %.not53, label %.backedge, label %48

48:                                               ; preds = %44
  %49 = getelementptr inbounds nuw i8, ptr %45, i64 200
  %50 = load ptr, ptr %49, align 8
  call void @list_append(ptr noundef %30, ptr noundef %50) #19
  br label %.backedge

51:                                               ; preds = %42
  %52 = load ptr, ptr @working_cluster_rec, align 8
  %53 = getelementptr inbounds nuw i8, ptr %52, i64 280
  %54 = load ptr, ptr %53, align 8
  %55 = call i32 (ptr, ...) @error(ptr noundef nonnull @.str.150, ptr noundef %54) #19
  br label %.backedge

.backedge:                                        ; preds = %51, %48, %44, %38
  %56 = call ptr @list_next(ptr noundef %33) #19
  store ptr %56, ptr @working_cluster_rec, align 8
  %.not45 = icmp eq ptr %56, null
  br i1 %.not45, label %._crit_edge, label %.lr.ph, !llvm.loop !39

._crit_edge:                                      ; preds = %.backedge, %29
  call void @list_iterator_destroy(ptr noundef %33) #19
  %.not46 = icmp eq ptr %30, null
  br i1 %.not46, label %58, label %57

57:                                               ; preds = %._crit_edge
  call void @list_destroy(ptr noundef nonnull %30) #19
  br label %58

58:                                               ; preds = %57, %._crit_edge
  %59 = load ptr, ptr %2, align 8
  %.not47 = icmp eq ptr %59, null
  br i1 %.not47, label %61, label %60

60:                                               ; preds = %58
  store ptr %59, ptr @working_cluster_rec, align 8
  store ptr null, ptr %2, align 8
  br label %61

61:                                               ; preds = %60, %58
  %62 = load ptr, ptr %19, align 8
  %63 = icmp eq ptr %62, %4
  br i1 %63, label %64, label %65

64:                                               ; preds = %61
  store ptr null, ptr %19, align 8
  br label %65

65:                                               ; preds = %64, %61
  %66 = call i32 @list_count(ptr noundef %31) #19
  %.not48 = icmp eq i32 %66, 0
  br i1 %.not48, label %67, label %69

67:                                               ; preds = %65
  %68 = call i32 (ptr, ...) @error(ptr noundef nonnull @.str.151) #19
  br label %80

69:                                               ; preds = %65
  call void @list_sort(ptr noundef %31, ptr noundef nonnull @_sort_local_cluster) #19
  %70 = call ptr @list_peek(ptr noundef %31) #19
  %71 = load ptr, ptr %5, align 8
  %72 = call ptr @list_iterator_create(ptr noundef %71) #19
  br label %73

73:                                               ; preds = %75, %69
  %74 = call ptr @list_next(ptr noundef %72) #19
  store ptr %74, ptr %2, align 8
  %.not49 = icmp eq ptr %74, null
  br i1 %.not49, label %.loopexit, label %75

75:                                               ; preds = %73
  %76 = load ptr, ptr %70, align 8
  %77 = icmp eq ptr %74, %76
  br i1 %77, label %78, label %73, !llvm.loop !40

78:                                               ; preds = %75
  %79 = call ptr @list_remove(ptr noundef %72) #19
  br label %.loopexit

.loopexit:                                        ; preds = %73, %78
  call void @list_iterator_destroy(ptr noundef %72) #19
  br label %80

80:                                               ; preds = %67, %.loopexit
  %.032 = phi i32 [ 0, %.loopexit ], [ -1, %67 ]
  %.not54 = icmp eq ptr %31, null
  br i1 %.not54, label %.thread, label %81

81:                                               ; preds = %80
  call void @list_destroy(ptr noundef nonnull %31) #19
  br label %.thread

.thread:                                          ; preds = %9, %15, %81, %80
  %.03259.ph = phi i32 [ 0, %15 ], [ -1, %9 ], [ %.032, %80 ], [ %.032, %81 ]
  %.pr = load ptr, ptr %5, align 8
  %.not55 = icmp eq ptr %.pr, null
  br i1 %.not55, label %.thread.thread, label %82

82:                                               ; preds = %.thread
  call void @list_destroy(ptr noundef nonnull %.pr) #19
  br label %.thread.thread

.thread.thread:                                   ; preds = %.thread, %82, %7, %3
  %.033 = phi i32 [ -1, %3 ], [ %.03259.ph, %82 ], [ %.03259.ph, %.thread ], [ -1, %7 ]
  call void @llvm.lifetime.end.p0(i64 8, ptr nonnull %5) #19
  call void @llvm.lifetime.end.p0(i64 64, ptr nonnull %4) #19
  ret i32 %.033
}